target datalayout = "e-m:e-p270:32:32-p271:32:32-p272:64:64-i64:64-i128:128-f80:128-n8:16:32:64-S128"
target triple = "x86_64-pc-linux-gnu"

%struct.FIREqualizerContext = type { ptr, ptr, ptr, ptr, ptr, ptr, ptr, ptr, ptr, ptr, ptr, ptr, ptr, ptr, ptr, i32, i32, i32, ptr, ptr, ptr, ptr, ptr, ptr, ptr, ptr, ptr, ptr, ptr, i32, i32, i64, i32, i32, ptr, ptr, ptr, ptr, double, double, i32, i32, i32, i32, i32, ptr, i32, i32, i32, i32, i32, [4096 x %struct.GainEntry] }
%struct.GainEntry = type { double, double }

; Function Attrs: nounwind uwtable
define internal void @common_uninit(ptr noundef %0) #1 {
  %2 = alloca ptr, align 8
  store ptr %0, ptr %2, align 8, !tbaa !22
  %3 = load ptr, ptr %2, align 8, !tbaa !22
  %4 = getelementptr inbounds nuw %struct.FIREqualizerContext, ptr %3, i32 0, i32 1
  call void @av_tx_uninit(ptr noundef %4)
  %5 = load ptr, ptr %2, align 8, !tbaa !22
  %6 = getelementptr inbounds nuw %struct.FIREqualizerContext, ptr %5, i32 0, i32 3
  call void @av_tx_uninit(ptr noundef %6)
  %7 = load ptr, ptr %2, align 8, !tbaa !22
  %8 = getelementptr inbounds nuw %struct.FIREqualizerContext, ptr %7, i32 0, i32 5
  call void @av_tx_uninit(ptr noundef %8)
  %9 = load ptr, ptr %2, align 8, !tbaa !22
  %10 = getelementptr inbounds nuw %struct.FIREqualizerContext, ptr %9, i32 0, i32 7
  call void @av_tx_uninit(ptr noundef %10)
  %11 = load ptr, ptr %2, align 8, !tbaa !22
  %12 = getelementptr inbounds nuw %struct.FIREqualizerContext, ptr %11, i32 0, i32 9
  call void @av_tx_uninit(ptr noundef %12)
  %13 = load ptr, ptr %2, align 8, !tbaa !22
  %14 = getelementptr inbounds nuw %struct.FIREqualizerContext, ptr %13, i32 0, i32 11
  call void @av_tx_uninit(ptr noundef %14)
  %15 = load ptr, ptr %2, align 8, !tbaa !22
  %16 = getelementptr inbounds nuw %struct.FIREqualizerContext, ptr %15, i32 0, i32 13
  call void @av_tx_uninit(ptr noundef %16)
  %17 = load ptr, ptr %2, align 8, !tbaa !22
  %18 = getelementptr inbounds nuw %struct.FIREqualizerContext, ptr %17, i32 0, i32 7
  store ptr null, ptr %18, align 8, !tbaa !119
  %19 = load ptr, ptr %2, align 8, !tbaa !22
  %20 = getelementptr inbounds nuw %struct.FIREqualizerContext, ptr %19, i32 0, i32 5
  store ptr null, ptr %20, align 8, !tbaa !116
  %21 = load ptr, ptr %2, align 8, !tbaa !22
  %22 = getelementptr inbounds nuw %struct.FIREqualizerContext, ptr %21, i32 0, i32 3
  store ptr null, ptr %22, align 8, !tbaa !127
  %23 = load ptr, ptr %2, align 8, !tbaa !22
  %24 = getelementptr inbounds nuw %struct.FIREqualizerContext, ptr %23, i32 0, i32 1
  store ptr null, ptr %24, align 8, !tbaa !128
  %25 = load ptr, ptr %2, align 8, !tbaa !22
  %26 = getelementptr inbounds nuw %struct.FIREqualizerContext, ptr %25, i32 0, i32 9
  store ptr null, ptr %26, align 8, !tbaa !50
  %27 = load ptr, ptr %2, align 8, !tbaa !22
  %28 = getelementptr inbounds nuw %struct.FIREqualizerContext, ptr %27, i32 0, i32 11
  store ptr null, ptr %28, align 8, !tbaa !129
  %29 = load ptr, ptr %2, align 8, !tbaa !22
  %30 = getelementptr inbounds nuw %struct.FIREqualizerContext, ptr %29, i32 0, i32 13
  store ptr null, ptr %30, align 8, !tbaa !130
  %31 = load ptr, ptr %2, align 8, !tbaa !22
  %32 = getelementptr inbounds nuw %struct.FIREqualizerContext, ptr %31, i32 0, i32 18
  call void @av_freep(ptr noundef %32)
  %33 = load ptr, ptr %2, align 8, !tbaa !22
  %34 = getelementptr inbounds nuw %struct.FIREqualizerContext, ptr %33, i32 0, i32 19
  call void @av_freep(ptr noundef %34)
  %35 = load ptr, ptr %2, align 8, !tbaa !22
  %36 = getelementptr inbounds nuw %struct.FIREqualizerContext, ptr %35, i32 0, i32 20
  call void @av_freep(ptr noundef %36)
  %37 = load ptr, ptr %2, align 8, !tbaa !22
  %38 = getelementptr inbounds nuw %struct.FIREqualizerContext, ptr %37, i32 0, i32 21
  call void @av_freep(ptr noundef %38)
  %39 = load ptr, ptr %2, align 8, !tbaa !22
  %40 = getelementptr inbounds nuw %struct.FIREqualizerContext, ptr %39, i32 0, i32 22
  call void @av_freep(ptr noundef %40)
  %41 = load ptr, ptr %2, align 8, !tbaa !22
  %42 = getelementptr inbounds nuw %struct.FIREqualizerContext, ptr %41, i32 0, i32 23
  call void @av_freep(ptr noundef %42)
  %43 = load ptr, ptr %2, align 8, !tbaa !22
  %44 = getelementptr inbounds nuw %struct.FIREqualizerContext, ptr %43, i32 0, i32 24
  call void @av_freep(ptr noundef %44)
  %45 = load ptr, ptr %2, align 8, !tbaa !22
  %46 = getelementptr inbounds nuw %struct.FIREqualizerContext, ptr %45, i32 0, i32 25
  call void @av_freep(ptr noundef %46)
  %47 = load ptr, ptr %2, align 8, !tbaa !22
  %48 = getelementptr inbounds nuw %struct.FIREqualizerContext, ptr %47, i32 0, i32 26
  call void @av_freep(ptr noundef %48)
  %49 = load ptr, ptr %2, align 8, !tbaa !22
  %50 = getelementptr inbounds nuw %struct.FIREqualizerContext, ptr %49, i32 0, i32 27
  call void @av_freep(ptr noundef %50)
  %51 = load ptr, ptr %2, align 8, !tbaa !22
  %52 = getelementptr inbounds nuw %struct.FIREqualizerContext, ptr %51, i32 0, i32 28
  call void @av_freep(ptr noundef %52)
  ret void
}