; Function Attrs: nounwind uwtable
define internal fastcc void @common_uninit(ptr noundef %0) unnamed_addr #1 {
  %2 = getelementptr inbounds nuw i8, ptr %0, i64 8
  tail call void @av_tx_uninit(ptr noundef nonnull %2) #14
  %3 = getelementptr inbounds nuw i8, ptr %0, i64 24
  tail call void @av_tx_uninit(ptr noundef nonnull %3) #14
  %4 = getelementptr inbounds nuw i8, ptr %0, i64 40
  tail call void @av_tx_uninit(ptr noundef nonnull %4) #14
  %5 = getelementptr inbounds nuw i8, ptr %0, i64 56
  tail call void @av_tx_uninit(ptr noundef nonnull %5) #14
  %6 = getelementptr inbounds nuw i8, ptr %0, i64 72
  tail call void @av_tx_uninit(ptr noundef nonnull %6) #14
  %7 = getelementptr inbounds nuw i8, ptr %0, i64 88
  tail call void @av_tx_uninit(ptr noundef nonnull %7) #14
  %8 = getelementptr inbounds nuw i8, ptr %0, i64 104
  tail call void @av_tx_uninit(ptr noundef nonnull %8) #14
  store ptr null, ptr %5, align 8, !tbaa !107
  store ptr null, ptr %4, align 8, !tbaa !104
  store ptr null, ptr %3, align 8, !tbaa !113
  store ptr null, ptr %2, align 8, !tbaa !114
  store ptr null, ptr %6, align 8, !tbaa !42
  store ptr null, ptr %7, align 8, !tbaa !115
  store ptr null, ptr %8, align 8, !tbaa !116
  %9 = getelementptr inbounds nuw i8, ptr %0, i64 136
  tail call void @av_freep(ptr noundef nonnull %9) #14
  %10 = getelementptr inbounds nuw i8, ptr %0, i64 144
  tail call void @av_freep(ptr noundef nonnull %10) #14
  %11 = getelementptr inbounds nuw i8, ptr %0, i64 152
  tail call void @av_freep(ptr noundef nonnull %11) #14
  %12 = getelementptr inbounds nuw i8, ptr %0, i64 160
  tail call void @av_freep(ptr noundef nonnull %12) #14
  %13 = getelementptr inbounds nuw i8, ptr %0, i64 168
  tail call void @av_freep(ptr noundef nonnull %13) #14
  %14 = getelementptr inbounds nuw i8, ptr %0, i64 176
  tail call void @av_freep(ptr noundef nonnull %14) #14
  %15 = getelementptr inbounds nuw i8, ptr %0, i64 184
  tail call void @av_freep(ptr noundef nonnull %15) #14
  %16 = getelementptr inbounds nuw i8, ptr %0, i64 192
  tail call void @av_freep(ptr noundef nonnull %16) #14
  %17 = getelementptr inbounds nuw i8, ptr %0, i64 200
  tail call void @av_freep(ptr noundef nonnull %17) #14
  %18 = getelementptr inbounds nuw i8, ptr %0, i64 208
  tail call void @av_freep(ptr noundef nonnull %18) #14
  %19 = getelementptr inbounds nuw i8, ptr %0, i64 216
  tail call void @av_freep(ptr noundef nonnull %19) #14
  ret void
}